; Function Attrs: nounwind sspstrong uwtable
define internal void @zstream_mark(ptr noundef readonly captures(none) %0) #0 {
  %2 = getelementptr inbounds nuw i8, ptr %0, i64 8
  %3 = load i64, ptr %2, align 8, !tbaa !43
  tail call void @rb_gc_mark(i64 noundef %3) #18
  %4 = getelementptr inbounds nuw i8, ptr %0, i64 16
  %5 = load i64, ptr %4, align 8, !tbaa !51
  tail call void @rb_gc_mark(i64 noundef %5) #18
  %6 = getelementptr inbounds nuw i8, ptr %0, i64 24
  %7 = load i64, ptr %6, align 8, !tbaa !70
  tail call void @rb_gc_mark(i64 noundef %7) #18
  ret void
}